; Function Attrs: nounwind uwtable
define internal range(i32 -1, 1) i32 @func_set_annotations(ptr noundef captures(none) %0, ptr noundef %1, ptr readnone captures(none) %2) #0 {
  %4 = icmp eq ptr %1, @_Py_NoneStruct
  %.not16 = icmp eq ptr %1, null
  %.not = or i1 %4, %.not16
  br i1 %.not, label %.split14, label %7

.split14:                                         ; preds = %3
  %5 = getelementptr inbounds nuw i8, ptr %0, i64 112
  %6 = load ptr, ptr %5, align 8, !tbaa !96
  br label %_Py_XNewRef.exit

7:                                                ; preds = %3
  %8 = getelementptr i8, ptr %1, i64 8
  %.val = load ptr, ptr %8, align 8, !tbaa !130
  %9 = getelementptr i8, ptr %.val, i64 168
  %.val19 = load i64, ptr %9, align 8, !tbaa !131
  %10 = and i64 %.val19, 536870912
  %.not17 = icmp eq i64 %10, 0
  br i1 %.not17, label %18, label %11

11:                                               ; preds = %7
  %12 = getelementptr inbounds nuw i8, ptr %0, i64 112
  %13 = load ptr, ptr %12, align 8, !tbaa !96
  %14 = load i32, ptr %1, align 8, !tbaa !99
  %15 = icmp slt i32 %14, 0
  br i1 %15, label %_Py_XNewRef.exit, label %16

16:                                               ; preds = %11
  %17 = add nuw i32 %14, 1
  store i32 %17, ptr %1, align 8, !tbaa !99
  br label %_Py_XNewRef.exit

18:                                               ; preds = %7
  %19 = load ptr, ptr @PyExc_TypeError, align 8, !tbaa !96
  tail call void @PyErr_SetString(ptr noundef %19, ptr noundef nonnull @.str.45) #8
  br label %Py_DECREF.exit

_Py_XNewRef.exit:                                 ; preds = %16, %11, %.split14
  %20 = phi ptr [ %5, %.split14 ], [ %12, %11 ], [ %12, %16 ]
  %21 = phi ptr [ %6, %.split14 ], [ %13, %11 ], [ %13, %16 ]
  %phi.call = phi ptr [ null, %.split14 ], [ %1, %11 ], [ %1, %16 ]
  store ptr %phi.call, ptr %20, align 8, !tbaa !96
  %.not.i20 = icmp eq ptr %21, null
  br i1 %.not.i20, label %Py_XDECREF.exit, label %22

22:                                               ; preds = %_Py_XNewRef.exit
  %23 = load i32, ptr %21, align 8, !tbaa !99
  %.not.i.i21 = icmp sgt i32 %23, -1
  br i1 %.not.i.i21, label %24, label %Py_XDECREF.exit

24:                                               ; preds = %22
  %25 = add nsw i32 %23, -1
  store i32 %25, ptr %21, align 8, !tbaa !99
  %26 = icmp eq i32 %25, 0
  br i1 %26, label %27, label %Py_XDECREF.exit

27:                                               ; preds = %24
  tail call void @_Py_Dealloc(ptr noundef nonnull %21) #8
  br label %Py_XDECREF.exit

Py_XDECREF.exit:                                  ; preds = %_Py_XNewRef.exit, %22, %24, %27
  %28 = getelementptr inbounds nuw i8, ptr %0, i64 120
  %29 = load ptr, ptr %28, align 8, !tbaa !96
  %.not18 = icmp eq ptr %29, null
  br i1 %.not18, label %Py_DECREF.exit, label %30

30:                                               ; preds = %Py_XDECREF.exit
  store ptr null, ptr %28, align 8, !tbaa !96
  %31 = load i32, ptr %29, align 8, !tbaa !99
  %.not.i = icmp sgt i32 %31, -1
  br i1 %.not.i, label %32, label %Py_DECREF.exit

32:                                               ; preds = %30
  %33 = add nsw i32 %31, -1
  store i32 %33, ptr %29, align 8, !tbaa !99
  %34 = icmp eq i32 %33, 0
  br i1 %34, label %35, label %Py_DECREF.exit

35:                                               ; preds = %32
  tail call void @_Py_Dealloc(ptr noundef nonnull %29) #8
  br label %Py_DECREF.exit

Py_DECREF.exit:                                   ; preds = %35, %32, %30, %Py_XDECREF.exit, %18
  %.0 = phi i32 [ -1, %18 ], [ 0, %Py_XDECREF.exit ], [ 0, %30 ], [ 0, %32 ], [ 0, %35 ]
  ret i32 %.0
}